target datalayout = "e-m:e-p270:32:32-p271:32:32-p272:64:64-i64:64-i128:128-f80:128-n8:16:32:64-S128"
target triple = "x86_64-pc-linux-gnu"

%struct.evthread_lock_callbacks = type { i32, i32, ptr, ptr, ptr, ptr }
%struct.event_base = type { ptr, ptr, %struct.event_changelist, ptr, %struct.evsig_info, i32, i32, i32, i32, i32, i32, i32, i32, i32, i32, i32, i32, ptr, i32, %struct.evcallback_list, ptr, i32, i32, %struct.event_signal_map, %struct.event_signal_map, %struct.min_heap, %struct.timeval, %struct.evutil_monotonic_timer, %struct.timeval, i64, i64, ptr, ptr, i32, ptr, i32, %struct.timeval, i32, i32, i32, [2 x i32], %struct.event, ptr, %struct.evutil_weakrand_state, %struct.once_event_list, [2 x %struct.evwatch_list] }
%struct.event_changelist = type { ptr, i32, i32 }
%struct.evsig_info = type { %struct.event, [2 x i32], i32, i32, [65 x ptr], ptr, i32 }
%struct.evcallback_list = type { ptr, ptr }
%struct.event_signal_map = type { ptr, i32 }
%struct.min_heap = type { ptr, i64, i64 }
%struct.evutil_monotonic_timer = type { i32, %struct.timeval, %struct.timeval }
%struct.timeval = type { i64, i64 }
%struct.event = type { %struct.event_callback, %union.anon.0, i32, i16, i16, ptr, %union.anon.2, %struct.timeval }
%struct.event_callback = type { %struct.anon, i16, i8, i8, %union.anon, ptr }
%struct.anon = type { ptr, ptr }
%union.anon = type { ptr }
%union.anon.0 = type { %struct.anon.1 }
%struct.anon.1 = type { ptr, ptr }
%union.anon.2 = type { %struct.anon.3 }
%struct.anon.3 = type { %struct.anon.4, %struct.timeval }
%struct.anon.4 = type { ptr, ptr }
%struct.evutil_weakrand_state = type { i32 }
%struct.once_event_list = type { ptr }
%struct.evwatch_list = type { ptr, ptr }
%struct.pollop = type { i32, i32, i32, ptr, ptr }
%struct.pollfd = type { i32, i16, i16 }

@.str = private unnamed_addr constant [5 x i8] c"poll\00", align 1
@.str.1 = private unnamed_addr constant [8 x i8] c"realloc\00", align 1
@evthread_lock_fns_ = external global %struct.evthread_lock_callbacks, align 8
@event_debug_logging_mask_ = external global i32, align 4
@.str.2 = private unnamed_addr constant [20 x i8] c"%s: poll reports %d\00", align 1
@__func__.poll_dispatch = private unnamed_addr constant [14 x i8] c"poll_dispatch\00", align 1

; Function Attrs: nounwind uwtable
define internal i32 @poll_dispatch(ptr noundef %0, ptr noundef %1) #0 {
  %3 = alloca i32, align 4
  %4 = alloca ptr, align 8
  %5 = alloca ptr, align 8
  %6 = alloca i32, align 4
  %7 = alloca i32, align 4
  %8 = alloca i32, align 4
  %9 = alloca i32, align 4
  %10 = alloca i64, align 8
  %11 = alloca ptr, align 8
  %12 = alloca ptr, align 8
  %13 = alloca ptr, align 8
  %14 = alloca i32, align 4
  %15 = alloca i32, align 4
  store ptr %0, ptr %4, align 8
  store ptr %1, ptr %5, align 8
  call void @llvm.lifetime.start.p0(i64 4, ptr %6) #6
  call void @llvm.lifetime.start.p0(i64 4, ptr %7) #6
  call void @llvm.lifetime.start.p0(i64 4, ptr %8) #6
  call void @llvm.lifetime.start.p0(i64 4, ptr %9) #6
  call void @llvm.lifetime.start.p0(i64 8, ptr %10) #6
  store i64 -1, ptr %10, align 8
  call void @llvm.lifetime.start.p0(i64 8, ptr %11) #6
  %16 = load ptr, ptr %4, align 8
  %17 = getelementptr inbounds nuw %struct.event_base, ptr %16, i32 0, i32 1
  %18 = load ptr, ptr %17, align 8
  store ptr %18, ptr %11, align 8
  call void @llvm.lifetime.start.p0(i64 8, ptr %12) #6
  %19 = load ptr, ptr %11, align 8
  %20 = getelementptr inbounds nuw %struct.pollop, ptr %19, i32 0, i32 1
  %21 = load i32, ptr %20, align 4
  store i32 %21, ptr %9, align 4
  %22 = load ptr, ptr %4, align 8
  %23 = getelementptr inbounds nuw %struct.event_base, ptr %22, i32 0, i32 31
  %24 = load ptr, ptr %23, align 8
  %25 = icmp ne ptr %24, null
  br i1 %25, label %26, label %66

26:                                               ; preds = %2
  %27 = load ptr, ptr %11, align 8
  %28 = getelementptr inbounds nuw %struct.pollop, ptr %27, i32 0, i32 2
  %29 = load i32, ptr %28, align 8
  %30 = icmp ne i32 %29, 0
  br i1 %30, label %31, label %53

31:                                               ; preds = %26
  call void @llvm.lifetime.start.p0(i64 8, ptr %13) #6
  %32 = load ptr, ptr %11, align 8
  %33 = getelementptr inbounds nuw %struct.pollop, ptr %32, i32 0, i32 4
  %34 = load ptr, ptr %33, align 8
  %35 = load ptr, ptr %11, align 8
  %36 = getelementptr inbounds nuw %struct.pollop, ptr %35, i32 0, i32 0
  %37 = load i32, ptr %36, align 8
  %38 = sext i32 %37 to i64
  %39 = mul i64 %38, 8
  %40 = call ptr @event_mm_realloc_(ptr noundef %34, i64 noundef %39)
  store ptr %40, ptr %13, align 8
  %41 = load ptr, ptr %13, align 8
  %42 = icmp eq ptr %41, null
  br i1 %42, label %43, label %44

43:                                               ; preds = %31
  call void (ptr, ...) @event_warn(ptr noundef @.str.1)
  store i32 -1, ptr %3, align 4
  store i32 1, ptr %14, align 4
  br label %50

44:                                               ; preds = %31
  %45 = load ptr, ptr %13, align 8
  %46 = load ptr, ptr %11, align 8
  %47 = getelementptr inbounds nuw %struct.pollop, ptr %46, i32 0, i32 4
  store ptr %45, ptr %47, align 8
  %48 = load ptr, ptr %11, align 8
  %49 = getelementptr inbounds nuw %struct.pollop, ptr %48, i32 0, i32 2
  store i32 0, ptr %49, align 8
  store i32 0, ptr %14, align 4
  br label %50

50:                                               ; preds = %44, %43
  call void @llvm.lifetime.end.p0(i64 8, ptr %13) #6
  %51 = load i32, ptr %14, align 4
  switch i32 %51, label %222 [
    i32 0, label %52
  ]

52:                                               ; preds = %50
  br label %53

53:                                               ; preds = %52, %26
  %54 = load ptr, ptr %11, align 8
  %55 = getelementptr inbounds nuw %struct.pollop, ptr %54, i32 0, i32 4
  %56 = load ptr, ptr %55, align 8
  %57 = load ptr, ptr %11, align 8
  %58 = getelementptr inbounds nuw %struct.pollop, ptr %57, i32 0, i32 3
  %59 = load ptr, ptr %58, align 8
  %60 = load i32, ptr %9, align 4
  %61 = sext i32 %60 to i64
  %62 = mul i64 8, %61
  call void @llvm.memcpy.p0.p0.i64(ptr align 4 %56, ptr align 4 %59, i64 %62, i1 false)
  %63 = load ptr, ptr %11, align 8
  %64 = getelementptr inbounds nuw %struct.pollop, ptr %63, i32 0, i32 4
  %65 = load ptr, ptr %64, align 8
  store ptr %65, ptr %12, align 8
  br label %70

66:                                               ; preds = %2
  %67 = load ptr, ptr %11, align 8
  %68 = getelementptr inbounds nuw %struct.pollop, ptr %67, i32 0, i32 3
  %69 = load ptr, ptr %68, align 8
  store ptr %69, ptr %12, align 8
  br label %70

70:                                               ; preds = %66, %53
  %71 = load ptr, ptr %5, align 8
  %72 = icmp ne ptr %71, null
  br i1 %72, label %73, label %83

73:                                               ; preds = %70
  %74 = load ptr, ptr %5, align 8
  %75 = call i64 @evutil_tv_to_msec_(ptr noundef %74)
  store i64 %75, ptr %10, align 8
  %76 = load i64, ptr %10, align 8
  %77 = icmp slt i64 %76, 0
  br i1 %77, label %81, label %78

78:                                               ; preds = %73
  %79 = load i64, ptr %10, align 8
  %80 = icmp sgt i64 %79, 2147483647
  br i1 %80, label %81, label %82

81:                                               ; preds = %78, %73
  store i64 2147483647, ptr %10, align 8
  br label %82

82:                                               ; preds = %81, %78
  br label %83

83:                                               ; preds = %82, %70
  br label %84

84:                                               ; preds = %83
  br label %85

85:                                               ; preds = %84
  %86 = load ptr, ptr %4, align 8
  %87 = getelementptr inbounds nuw %struct.event_base, ptr %86, i32 0, i32 31
  %88 = load ptr, ptr %87, align 8
  %89 = icmp ne ptr %88, null
  br i1 %89, label %90, label %96

90:                                               ; preds = %85
  %91 = load ptr, ptr getelementptr inbounds nuw (%struct.evthread_lock_callbacks, ptr @evthread_lock_fns_, i32 0, i32 5), align 8
  %92 = load ptr, ptr %4, align 8
  %93 = getelementptr inbounds nuw %struct.event_base, ptr %92, i32 0, i32 31
  %94 = load ptr, ptr %93, align 8
  %95 = call i32 %91(i32 noundef 0, ptr noundef %94)
  br label %96

96:                                               ; preds = %90, %85
  br label %97

97:                                               ; preds = %96
  br label %98

98:                                               ; preds = %97
  br label %99

99:                                               ; preds = %98
  br label %100

100:                                              ; preds = %99
  %101 = load ptr, ptr %12, align 8
  %102 = load i32, ptr %9, align 4
  %103 = sext i32 %102 to i64
  %104 = load i64, ptr %10, align 8
  %105 = trunc i64 %104 to i32
  %106 = call i32 @poll(ptr noundef %101, i64 noundef %103, i32 noundef %105)
  store i32 %106, ptr %6, align 4
  br label %107

107:                                              ; preds = %100
  br label %108

108:                                              ; preds = %107
  %109 = load ptr, ptr %4, align 8
  %110 = getelementptr inbounds nuw %struct.event_base, ptr %109, i32 0, i32 31
  %111 = load ptr, ptr %110, align 8
  %112 = icmp ne ptr %111, null
  br i1 %112, label %113, label %119

113:                                              ; preds = %108
  %114 = load ptr, ptr getelementptr inbounds nuw (%struct.evthread_lock_callbacks, ptr @evthread_lock_fns_, i32 0, i32 4), align 8
  %115 = load ptr, ptr %4, align 8
  %116 = getelementptr inbounds nuw %struct.event_base, ptr %115, i32 0, i32 31
  %117 = load ptr, ptr %116, align 8
  %118 = call i32 %114(i32 noundef 0, ptr noundef %117)
  br label %119

119:                                              ; preds = %113, %108
  br label %120

120:                                              ; preds = %119
  br label %121

121:                                              ; preds = %120
  br label %122

122:                                              ; preds = %121
  br label %123

123:                                              ; preds = %122
  %124 = load i32, ptr %6, align 4
  %125 = icmp eq i32 %124, -1
  br i1 %125, label %126, label %132

126:                                              ; preds = %123
  %127 = call ptr @__errno_location() #7
  %128 = load i32, ptr %127, align 4
  %129 = icmp ne i32 %128, 4
  br i1 %129, label %130, label %131

130:                                              ; preds = %126
  call void (ptr, ...) @event_warn(ptr noundef @.str)
  store i32 -1, ptr %3, align 4
  store i32 1, ptr %14, align 4
  br label %222

131:                                              ; preds = %126
  store i32 0, ptr %3, align 4
  store i32 1, ptr %14, align 4
  br label %222

132:                                              ; preds = %123
  br label %133

133:                                              ; preds = %132
  %134 = load i32, ptr @event_debug_logging_mask_, align 4
  %135 = icmp ne i32 %134, 0
  br i1 %135, label %136, label %138

136:                                              ; preds = %133
  %137 = load i32, ptr %6, align 4
  call void (ptr, ...) @event_debugx_(ptr noundef @.str.2, ptr noundef @__func__.poll_dispatch, i32 noundef %137)
  br label %138

138:                                              ; preds = %136, %133
  br label %139

139:                                              ; preds = %138
  br label %140

140:                                              ; preds = %139
  %141 = load i32, ptr %6, align 4
  %142 = icmp eq i32 %141, 0
  br i1 %142, label %146, label %143

143:                                              ; preds = %140
  %144 = load i32, ptr %9, align 4
  %145 = icmp eq i32 %144, 0
  br i1 %145, label %146, label %147

146:                                              ; preds = %143, %140
  store i32 0, ptr %3, align 4
  store i32 1, ptr %14, align 4
  br label %222

147:                                              ; preds = %143
  %148 = load ptr, ptr %4, align 8
  %149 = getelementptr inbounds nuw %struct.event_base, ptr %148, i32 0, i32 43
  %150 = load i32, ptr %9, align 4
  %151 = call i32 @evutil_weakrand_range_(ptr noundef %149, i32 noundef %150)
  store i32 %151, ptr %7, align 4
  store i32 0, ptr %8, align 4
  br label %152

152:                                              ; preds = %218, %147
  %153 = load i32, ptr %8, align 4
  %154 = load i32, ptr %9, align 4
  %155 = icmp slt i32 %153, %154
  br i1 %155, label %156, label %221

156:                                              ; preds = %152
  call void @llvm.lifetime.start.p0(i64 4, ptr %15) #6
  %157 = load i32, ptr %7, align 4
  %158 = add nsw i32 %157, 1
  store i32 %158, ptr %7, align 4
  %159 = load i32, ptr %9, align 4
  %160 = icmp eq i32 %158, %159
  br i1 %160, label %161, label %162

161:                                              ; preds = %156
  store i32 0, ptr %7, align 4
  br label %162

162:                                              ; preds = %161, %156
  %163 = load ptr, ptr %12, align 8
  %164 = load i32, ptr %7, align 4
  %165 = sext i32 %164 to i64
  %166 = getelementptr inbounds %struct.pollfd, ptr %163, i64 %165
  %167 = getelementptr inbounds nuw %struct.pollfd, ptr %166, i32 0, i32 2
  %168 = load i16, ptr %167, align 2
  %169 = sext i16 %168 to i32
  store i32 %169, ptr %15, align 4
  %170 = load i32, ptr %15, align 4
  %171 = icmp ne i32 %170, 0
  br i1 %171, label %173, label %172

172:                                              ; preds = %162
  store i32 14, ptr %14, align 4
  br label %215

173:                                              ; preds = %162
  store i32 0, ptr %6, align 4
  %174 = load i32, ptr %15, align 4
  %175 = and i32 %174, 56
  %176 = icmp ne i32 %175, 0
  br i1 %176, label %177, label %180

177:                                              ; preds = %173
  %178 = load i32, ptr %15, align 4
  %179 = or i32 %178, 5
  store i32 %179, ptr %15, align 4
  br label %180

180:                                              ; preds = %177, %173
  %181 = load i32, ptr %15, align 4
  %182 = and i32 %181, 1
  %183 = icmp ne i32 %182, 0
  br i1 %183, label %184, label %187

184:                                              ; preds = %180
  %185 = load i32, ptr %6, align 4
  %186 = or i32 %185, 2
  store i32 %186, ptr %6, align 4
  br label %187

187:                                              ; preds = %184, %180
  %188 = load i32, ptr %15, align 4
  %189 = and i32 %188, 4
  %190 = icmp ne i32 %189, 0
  br i1 %190, label %191, label %194

191:                                              ; preds = %187
  %192 = load i32, ptr %6, align 4
  %193 = or i32 %192, 4
  store i32 %193, ptr %6, align 4
  br label %194

194:                                              ; preds = %191, %187
  %195 = load i32, ptr %15, align 4
  %196 = and i32 %195, 8192
  %197 = icmp ne i32 %196, 0
  br i1 %197, label %198, label %201

198:                                              ; preds = %194
  %199 = load i32, ptr %6, align 4
  %200 = or i32 %199, 128
  store i32 %200, ptr %6, align 4
  br label %201

201:                                              ; preds = %198, %194
  %202 = load i32, ptr %6, align 4
  %203 = icmp eq i32 %202, 0
  br i1 %203, label %204, label %205

204:                                              ; preds = %201
  store i32 14, ptr %14, align 4
  br label %215

205:                                              ; preds = %201
  %206 = load ptr, ptr %4, align 8
  %207 = load ptr, ptr %12, align 8
  %208 = load i32, ptr %7, align 4
  %209 = sext i32 %208 to i64
  %210 = getelementptr inbounds %struct.pollfd, ptr %207, i64 %209
  %211 = getelementptr inbounds nuw %struct.pollfd, ptr %210, i32 0, i32 0
  %212 = load i32, ptr %211, align 4
  %213 = load i32, ptr %6, align 4
  %214 = trunc i32 %213 to i16
  call void @evmap_io_active_(ptr noundef %206, i32 noundef %212, i16 noundef signext %214)
  store i32 0, ptr %14, align 4
  br label %215

215:                                              ; preds = %205, %204, %172
  call void @llvm.lifetime.end.p0(i64 4, ptr %15) #6
  %216 = load i32, ptr %14, align 4
  switch i32 %216, label %224 [
    i32 0, label %217
    i32 14, label %218
  ]

217:                                              ; preds = %215
  br label %218

218:                                              ; preds = %217, %215
  %219 = load i32, ptr %8, align 4
  %220 = add nsw i32 %219, 1
  store i32 %220, ptr %8, align 4
  br label %152, !llvm.loop !3

221:                                              ; preds = %152
  store i32 0, ptr %3, align 4
  store i32 1, ptr %14, align 4
  br label %222

222:                                              ; preds = %221, %146, %131, %130, %50
  call void @llvm.lifetime.end.p0(i64 8, ptr %12) #6
  call void @llvm.lifetime.end.p0(i64 8, ptr %11) #6
  call void @llvm.lifetime.end.p0(i64 8, ptr %10) #6
  call void @llvm.lifetime.end.p0(i64 4, ptr %9) #6
  call void @llvm.lifetime.end.p0(i64 4, ptr %8) #6
  call void @llvm.lifetime.end.p0(i64 4, ptr %7) #6
  call void @llvm.lifetime.end.p0(i64 4, ptr %6) #6
  %223 = load i32, ptr %3, align 4
  ret i32 %223

224:                                              ; preds = %215
  unreachable
}