; Function Attrs: nounwind uwtable
define internal range(i32 -1, 1) i32 @poll_dispatch(ptr noundef %0, ptr noundef %1) #0 {
  %3 = getelementptr inbounds nuw i8, ptr %0, i64 8
  %4 = load ptr, ptr %3, align 8
  %5 = getelementptr inbounds nuw i8, ptr %4, i64 4
  %6 = load i32, ptr %5, align 4
  %7 = getelementptr inbounds nuw i8, ptr %0, i64 952
  %8 = load ptr, ptr %7, align 8
  %.not = icmp eq ptr %8, null
  br i1 %.not, label %24, label %9

9:                                                ; preds = %2
  %10 = getelementptr inbounds nuw i8, ptr %4, i64 8
  %11 = load i32, ptr %10, align 8
  %.not73 = icmp eq i32 %11, 0
  %.phi.trans.insert = getelementptr inbounds nuw i8, ptr %4, i64 24
  %.pre = load ptr, ptr %.phi.trans.insert, align 8
  br i1 %.not73, label %._crit_edge, label %12

12:                                               ; preds = %9
  %13 = load i32, ptr %4, align 8
  %14 = sext i32 %13 to i64
  %15 = shl nsw i64 %14, 3
  %16 = tail call ptr @event_mm_realloc_(ptr noundef %.pre, i64 noundef %15) #6
  %.not74 = icmp eq ptr %16, null
  br i1 %.not74, label %.loopexit.sink.split, label %17

17:                                               ; preds = %12
  store ptr %16, ptr %.phi.trans.insert, align 8
  store i32 0, ptr %10, align 8
  br label %._crit_edge

._crit_edge:                                      ; preds = %9, %17
  %18 = phi ptr [ %16, %17 ], [ %.pre, %9 ]
  %19 = getelementptr inbounds nuw i8, ptr %4, i64 24
  %20 = getelementptr inbounds nuw i8, ptr %4, i64 16
  %21 = load ptr, ptr %20, align 8
  %22 = sext i32 %6 to i64
  %23 = shl nsw i64 %22, 3
  tail call void @llvm.memcpy.p0.p0.i64(ptr align 4 %18, ptr align 4 %21, i64 %23, i1 false)
  br label %26

24:                                               ; preds = %2
  %25 = getelementptr inbounds nuw i8, ptr %4, i64 16
  br label %26

26:                                               ; preds = %24, %._crit_edge
  %.060.in = phi ptr [ %19, %._crit_edge ], [ %25, %24 ]
  %.060 = load ptr, ptr %.060.in, align 8
  %.not75 = icmp eq ptr %1, null
  br i1 %.not75, label %30, label %27

27:                                               ; preds = %26
  %28 = tail call i64 @evutil_tv_to_msec_(ptr noundef nonnull %1) #6
  %spec.store.select4 = tail call i64 @llvm.umin.i64(i64 %28, i64 2147483647)
  %29 = trunc nuw nsw i64 %spec.store.select4 to i32
  br label %30

30:                                               ; preds = %27, %26
  %.063 = phi i32 [ %29, %27 ], [ -1, %26 ]
  %31 = load ptr, ptr %7, align 8
  %.not76 = icmp eq ptr %31, null
  br i1 %.not76, label %35, label %32

32:                                               ; preds = %30
  %33 = load ptr, ptr getelementptr inbounds nuw (i8, ptr @evthread_lock_fns_, i64 32), align 8
  %34 = tail call i32 %33(i32 noundef 0, ptr noundef nonnull %31) #6
  br label %35

35:                                               ; preds = %32, %30
  %36 = sext i32 %6 to i64
  %37 = tail call i32 @poll(ptr noundef %.060, i64 noundef %36, i32 noundef %.063) #6
  %38 = load ptr, ptr %7, align 8
  %.not77 = icmp eq ptr %38, null
  br i1 %.not77, label %42, label %39

39:                                               ; preds = %35
  %40 = load ptr, ptr getelementptr inbounds nuw (i8, ptr @evthread_lock_fns_, i64 24), align 8
  %41 = tail call i32 %40(i32 noundef 0, ptr noundef nonnull %38) #6
  br label %42

42:                                               ; preds = %39, %35
  %43 = icmp eq i32 %37, -1
  br i1 %43, label %44, label %47

44:                                               ; preds = %42
  %45 = tail call ptr @__errno_location() #7
  %46 = load i32, ptr %45, align 4
  %.not84 = icmp eq i32 %46, 4
  br i1 %.not84, label %.loopexit, label %.loopexit.sink.split

47:                                               ; preds = %42
  %48 = load i32, ptr @event_debug_logging_mask_, align 4
  %.not78 = icmp eq i32 %48, 0
  br i1 %.not78, label %50, label %49

49:                                               ; preds = %47
  tail call void (ptr, ...) @event_debugx_(ptr noundef nonnull @.str.2, ptr noundef nonnull @__func__.poll_dispatch, i32 noundef %37) #6
  br label %50

50:                                               ; preds = %49, %47
  %51 = icmp eq i32 %37, 0
  %52 = icmp eq i32 %6, 0
  %or.cond3 = select i1 %51, i1 true, i1 %52
  br i1 %or.cond3, label %.loopexit, label %53

53:                                               ; preds = %50
  %54 = getelementptr inbounds nuw i8, ptr %0, i64 1160
  %55 = tail call i32 @evutil_weakrand_range_(ptr noundef nonnull %54, i32 noundef %6) #6
  %56 = icmp sgt i32 %6, 0
  br i1 %56, label %.lr.ph, label %.loopexit

.lr.ph:                                           ; preds = %53, %75
  %.06486 = phi i32 [ %spec.store.select, %75 ], [ %55, %53 ]
  %.06585 = phi i32 [ %76, %75 ], [ 0, %53 ]
  %57 = add nsw i32 %.06486, 1
  %58 = icmp eq i32 %57, %6
  %spec.store.select = select i1 %58, i32 0, i32 %57
  %59 = sext i32 %spec.store.select to i64
  %60 = getelementptr inbounds %struct.pollfd, ptr %.060, i64 %59
  %61 = getelementptr inbounds nuw i8, ptr %60, i64 6
  %62 = load i16, ptr %61, align 2
  %.not79 = icmp eq i16 %62, 0
  br i1 %.not79, label %75, label %63

63:                                               ; preds = %.lr.ph
  %64 = sext i16 %62 to i32
  %65 = and i16 %62, 56
  %.not80 = icmp eq i16 %65, 0
  %66 = or i32 %64, 5
  %spec.select = select i1 %.not80, i32 %64, i32 %66
  %67 = shl nsw i32 %spec.select, 1
  %.061 = and i32 %67, 2
  %68 = and i32 %spec.select, 4
  %.162 = or disjoint i32 %.061, %68
  %69 = lshr i32 %spec.select, 6
  %70 = and i32 %69, 128
  %.2 = or disjoint i32 %.162, %70
  %71 = icmp eq i32 %.2, 0
  br i1 %71, label %75, label %72

72:                                               ; preds = %63
  %73 = load i32, ptr %60, align 4
  %74 = trunc nuw nsw i32 %.2 to i16
  tail call void @evmap_io_active_(ptr noundef %0, i32 noundef %73, i16 noundef signext %74) #6
  br label %75

75:                                               ; preds = %63, %.lr.ph, %72
  %76 = add nuw nsw i32 %.06585, 1
  %exitcond.not = icmp eq i32 %76, %6
  br i1 %exitcond.not, label %.loopexit, label %.lr.ph, !llvm.loop !3

.loopexit.sink.split:                             ; preds = %44, %12
  %.str.1.sink = phi ptr [ @.str.1, %12 ], [ @.str, %44 ]
  tail call void (ptr, ...) @event_warn(ptr noundef nonnull %.str.1.sink) #6
  br label %.loopexit

.loopexit:                                        ; preds = %75, %.loopexit.sink.split, %53, %50, %44
  %.1 = phi i32 [ 0, %44 ], [ 0, %50 ], [ 0, %53 ], [ -1, %.loopexit.sink.split ], [ 0, %75 ]
  ret i32 %.1
}